target datalayout = "e-m:e-p270:32:32-p271:32:32-p272:64:64-i64:64-i128:128-f80:128-n8:16:32:64-S128"
target triple = "x86_64-unknown-linux-gnu"

%struct.QEMUTimerListGroup = type { [4 x ptr] }
%struct.QEMUClock = type { %struct.anon.0, i32, i8 }
%struct.anon.0 = type { ptr }
%struct.QEMUTimerList = type { ptr, %struct.QemuMutex, ptr, %struct.anon, ptr, ptr, %struct.QemuEvent }
%struct.QemuMutex = type { %union.pthread_mutex_t, i8 }
%union.pthread_mutex_t = type { %struct.__pthread_mutex_s }
%struct.__pthread_mutex_s = type { i32, i32, i32, i32, i32, i16, i16, %struct.__pthread_internal_list }
%struct.__pthread_internal_list = type { ptr, ptr }
%struct.anon = type { ptr, ptr }
%struct.QemuEvent = type { i32, i8 }
%struct.QemuLockable = type { ptr, ptr, ptr }
%struct.QEMUTimer = type { i64, ptr, ptr, ptr, ptr, i32, i32 }

@.str.1 = private unnamed_addr constant [26 x i8] c"../qemu/util/qemu-timer.c\00", align 1
@use_icount = external global i32, align 4
@__func__.timerlist_deadline_ns = private unnamed_addr constant [22 x i8] c"timerlist_deadline_ns\00", align 1

; Function Attrs: nounwind sspstrong uwtable
define internal void @glib_autoptr_clear_QemuLockable(ptr noundef %_ptr) #0 {
entry:
  %_ptr.addr = alloca ptr, align 8
  store ptr %_ptr, ptr %_ptr.addr, align 8
  %0 = load ptr, ptr %_ptr.addr, align 8
  %tobool = icmp ne ptr %0, null
  br i1 %tobool, label %if.then, label %if.end

if.then:                                          ; preds = %entry
  %1 = load ptr, ptr %_ptr.addr, align 8
  call void @qemu_lockable_auto_unlock(ptr noundef %1)
  br label %if.end

if.end:                                           ; preds = %if.then, %entry
  ret void
}

; Function Attrs: nounwind sspstrong uwtable
define internal void @qemu_lockable_unlock(ptr noundef %x) #0 {
entry:
  %x.addr = alloca ptr, align 8
  store ptr %x, ptr %x.addr, align 8
  %0 = load ptr, ptr %x.addr, align 8
  %unlock = getelementptr inbounds %struct.QemuLockable, ptr %0, i32 0, i32 2
  %1 = load ptr, ptr %unlock, align 8
  %2 = load ptr, ptr %x.addr, align 8
  %object = getelementptr inbounds %struct.QemuLockable, ptr %2, i32 0, i32 0
  %3 = load ptr, ptr %object, align 8
  call void %1(ptr noundef %3)
  ret void
}

; Function Attrs: nounwind sspstrong uwtable
define internal void @qemu_lockable_lock(ptr noundef %x) #0 {
entry:
  %x.addr = alloca ptr, align 8
  store ptr %x, ptr %x.addr, align 8
  %0 = load ptr, ptr %x.addr, align 8
  %lock = getelementptr inbounds %struct.QemuLockable, ptr %0, i32 0, i32 1
  %1 = load ptr, ptr %lock, align 8
  %2 = load ptr, ptr %x.addr, align 8
  %object = getelementptr inbounds %struct.QemuLockable, ptr %2, i32 0, i32 0
  %3 = load ptr, ptr %object, align 8
  call void %1(ptr noundef %3)
  ret void
}

; Function Attrs: nounwind sspstrong uwtable
define internal void @glib_autoptr_cleanup_QemuLockable(ptr noundef %_ptr) #0 {
entry:
  %_ptr.addr = alloca ptr, align 8
  store ptr %_ptr, ptr %_ptr.addr, align 8
  %0 = load ptr, ptr %_ptr.addr, align 8
  %1 = load ptr, ptr %0, align 8
  call void @glib_autoptr_clear_QemuLockable(ptr noundef %1)
  ret void
}

; Function Attrs: nounwind sspstrong uwtable
define internal void @qemu_lockable_auto_unlock(ptr noundef %x) #0 {
entry:
  %x.addr = alloca ptr, align 8
  store ptr %x, ptr %x.addr, align 8
  %0 = load ptr, ptr %x.addr, align 8
  %tobool = icmp ne ptr %0, null
  br i1 %tobool, label %if.then, label %if.end

if.then:                                          ; preds = %entry
  %1 = load ptr, ptr %x.addr, align 8
  call void @qemu_lockable_unlock(ptr noundef %1)
  br label %if.end

if.end:                                           ; preds = %if.then, %entry
  ret void
}

; Function Attrs: nounwind sspstrong uwtable
define internal ptr @qemu_lockable_auto_lock(ptr noundef %x) #0 {
entry:
  %x.addr = alloca ptr, align 8
  store ptr %x, ptr %x.addr, align 8
  %0 = load ptr, ptr %x.addr, align 8
  call void @qemu_lockable_lock(ptr noundef %0)
  %1 = load ptr, ptr %x.addr, align 8
  ret ptr %1
}

; Function Attrs: nounwind sspstrong uwtable
define internal i64 @qemu_soonest_timeout(i64 noundef %timeout1, i64 noundef %timeout2) #0 {
entry:
  %timeout1.addr = alloca i64, align 8
  %timeout2.addr = alloca i64, align 8
  store i64 %timeout1, ptr %timeout1.addr, align 8
  store i64 %timeout2, ptr %timeout2.addr, align 8
  %0 = load i64, ptr %timeout1.addr, align 8
  %1 = load i64, ptr %timeout2.addr, align 8
  %cmp = icmp ult i64 %0, %1
  br i1 %cmp, label %cond.true, label %cond.false

cond.true:                                        ; preds = %entry
  %2 = load i64, ptr %timeout1.addr, align 8
  br label %cond.end

cond.false:                                       ; preds = %entry
  %3 = load i64, ptr %timeout2.addr, align 8
  br label %cond.end

cond.end:                                         ; preds = %cond.false, %cond.true
  %cond = phi i64 [ %2, %cond.true ], [ %3, %cond.false ]
  ret i64 %cond
}

; Function Attrs: nounwind sspstrong uwtable
define dso_local i64 @timerlist_deadline_ns(ptr noundef %timer_list) #0 {
entry:
  %retval = alloca i64, align 8
  %timer_list.addr = alloca ptr, align 8
  %delta = alloca i64, align 8
  %expire_time = alloca i64, align 8
  %tmp = alloca ptr, align 8
  %atomic-temp = alloca ptr, align 8
  %qemu_lockable_auto1 = alloca ptr, align 8
  %.compoundliteral = alloca %struct.QemuLockable, align 8
  %cleanup.dest.slot = alloca i32, align 4
  store ptr %timer_list, ptr %timer_list.addr, align 8
  br label %while.cond

while.cond:                                       ; preds = %do.end, %entry
  br i1 false, label %while.body, label %while.end

while.body:                                       ; preds = %while.cond
  br label %do.body

do.body:                                          ; preds = %while.body
  call void @g_assertion_message_expr(ptr noundef null, ptr noundef @.str.1, i32 noundef 217, ptr noundef @__func__.timerlist_deadline_ns, ptr noundef null) #8
  unreachable

do.end:                                           ; No predecessors!
  br label %while.cond

while.end:                                        ; preds = %while.cond
  %0 = load ptr, ptr %timer_list.addr, align 8
  %active_timers = getelementptr inbounds %struct.QEMUTimerList, ptr %0, i32 0, i32 2
  %1 = load atomic i64, ptr %active_timers monotonic, align 8
  store i64 %1, ptr %atomic-temp, align 8
  %2 = load ptr, ptr %atomic-temp, align 8
  store ptr %2, ptr %tmp, align 8
  %3 = load ptr, ptr %tmp, align 8
  %tobool = icmp ne ptr %3, null
  br i1 %tobool, label %if.end, label %if.then

if.then:                                          ; preds = %while.end
  store i64 -1, ptr %retval, align 8
  br label %return

if.end:                                           ; preds = %while.end
  %4 = load ptr, ptr %timer_list.addr, align 8
  %clock = getelementptr inbounds %struct.QEMUTimerList, ptr %4, i32 0, i32 0
  %5 = load ptr, ptr %clock, align 8
  %enabled = getelementptr inbounds %struct.QEMUClock, ptr %5, i32 0, i32 2
  %6 = load i8, ptr %enabled, align 4
  %tobool1 = trunc i8 %6 to i1
  br i1 %tobool1, label %if.end3, label %if.then2

if.then2:                                         ; preds = %if.end
  store i64 -1, ptr %retval, align 8
  br label %return

if.end3:                                          ; preds = %if.end
  %object = getelementptr inbounds %struct.QemuLockable, ptr %.compoundliteral, i32 0, i32 0
  %7 = load ptr, ptr %timer_list.addr, align 8
  %active_timers_lock = getelementptr inbounds %struct.QEMUTimerList, ptr %7, i32 0, i32 1
  store ptr %active_timers_lock, ptr %object, align 8
  %lock = getelementptr inbounds %struct.QemuLockable, ptr %.compoundliteral, i32 0, i32 1
  store ptr @qemu_mutex_lock, ptr %lock, align 8
  %unlock = getelementptr inbounds %struct.QemuLockable, ptr %.compoundliteral, i32 0, i32 2
  store ptr @qemu_mutex_unlock, ptr %unlock, align 8
  %call = call ptr @qemu_lockable_auto_lock(ptr noundef %.compoundliteral)
  store ptr %call, ptr %qemu_lockable_auto1, align 8
  br label %for.cond

for.cond:                                         ; preds = %for.inc, %if.end3
  %8 = load ptr, ptr %qemu_lockable_auto1, align 8
  %tobool4 = icmp ne ptr %8, null
  br i1 %tobool4, label %for.body, label %for.cond.cleanup

for.cond.cleanup:                                 ; preds = %for.cond
  store i32 6, ptr %cleanup.dest.slot, align 4
  br label %cleanup

for.body:                                         ; preds = %for.cond
  %9 = load ptr, ptr %timer_list.addr, align 8
  %active_timers5 = getelementptr inbounds %struct.QEMUTimerList, ptr %9, i32 0, i32 2
  %10 = load ptr, ptr %active_timers5, align 8
  %tobool6 = icmp ne ptr %10, null
  br i1 %tobool6, label %if.end8, label %if.then7

if.then7:                                         ; preds = %for.body
  store i64 -1, ptr %retval, align 8
  store i32 1, ptr %cleanup.dest.slot, align 4
  br label %cleanup

if.end8:                                          ; preds = %for.body
  %11 = load ptr, ptr %timer_list.addr, align 8
  %active_timers9 = getelementptr inbounds %struct.QEMUTimerList, ptr %11, i32 0, i32 2
  %12 = load ptr, ptr %active_timers9, align 8
  %expire_time10 = getelementptr inbounds %struct.QEMUTimer, ptr %12, i32 0, i32 0
  %13 = load i64, ptr %expire_time10, align 8
  store i64 %13, ptr %expire_time, align 8
  br label %for.inc

for.inc:                                          ; preds = %if.end8
  %14 = load ptr, ptr %qemu_lockable_auto1, align 8
  call void @qemu_lockable_auto_unlock(ptr noundef %14)
  store ptr null, ptr %qemu_lockable_auto1, align 8
  br label %for.cond, !llvm.loop !9

cleanup:                                          ; preds = %if.then7, %for.cond.cleanup
  call void @glib_autoptr_cleanup_QemuLockable(ptr noundef %qemu_lockable_auto1)
  %cleanup.dest = load i32, ptr %cleanup.dest.slot, align 4
  switch i32 %cleanup.dest, label %unreachable [
    i32 6, label %for.end
    i32 1, label %return
  ]

for.end:                                          ; preds = %cleanup
  %15 = load i64, ptr %expire_time, align 8
  %16 = load ptr, ptr %timer_list.addr, align 8
  %clock11 = getelementptr inbounds %struct.QEMUTimerList, ptr %16, i32 0, i32 0
  %17 = load ptr, ptr %clock11, align 8
  %type = getelementptr inbounds %struct.QEMUClock, ptr %17, i32 0, i32 1
  %18 = load i32, ptr %type, align 8
  %call12 = call i64 @qemu_clock_get_ns(i32 noundef %18)
  %sub = sub i64 %15, %call12
  store i64 %sub, ptr %delta, align 8
  %19 = load i64, ptr %delta, align 8
  %cmp = icmp sle i64 %19, 0
  br i1 %cmp, label %if.then13, label %if.end14

if.then13:                                        ; preds = %for.end
  store i64 0, ptr %retval, align 8
  br label %return

if.end14:                                         ; preds = %for.end
  %20 = load i64, ptr %delta, align 8
  store i64 %20, ptr %retval, align 8
  br label %return

return:                                           ; preds = %if.end14, %if.then13, %cleanup, %if.then2, %if.then
  %21 = load i64, ptr %retval, align 8
  ret i64 %21

unreachable:                                      ; preds = %cleanup
  unreachable
}

; Function Attrs: nounwind sspstrong uwtable
define dso_local zeroext i1 @qemu_clock_use_for_deadline(i32 noundef %type) #0 {
entry:
  %type.addr = alloca i32, align 4
  store i32 %type, ptr %type.addr, align 4
  %0 = load i32, ptr @use_icount, align 4
  %tobool = icmp ne i32 %0, 0
  br i1 %tobool, label %land.rhs, label %land.end

land.rhs:                                         ; preds = %entry
  %1 = load i32, ptr %type.addr, align 4
  %cmp = icmp eq i32 %1, 1
  br label %land.end

land.end:                                         ; preds = %land.rhs, %entry
  %2 = phi i1 [ false, %entry ], [ %cmp, %land.rhs ]
  %lnot = xor i1 %2, true
  ret i1 %lnot
}

; Function Attrs: nounwind sspstrong uwtable
define dso_local i64 @timerlistgroup_deadline_ns(ptr noundef %tlg) #0 {
entry:
  %tlg.addr = alloca ptr, align 8
  %deadline = alloca i64, align 8
  %type = alloca i32, align 4
  store ptr %tlg, ptr %tlg.addr, align 8
  store i64 -1, ptr %deadline, align 8
  store i32 0, ptr %type, align 4
  br label %for.cond

for.cond:                                         ; preds = %for.inc, %entry
  %0 = load i32, ptr %type, align 4
  %cmp = icmp ult i32 %0, 4
  br i1 %cmp, label %for.body, label %for.end

for.body:                                         ; preds = %for.cond
  %1 = load i32, ptr %type, align 4
  %call = call zeroext i1 @qemu_clock_use_for_deadline(i32 noundef %1)
  br i1 %call, label %if.then, label %if.end

if.then:                                          ; preds = %for.body
  %2 = load i64, ptr %deadline, align 8
  %3 = load ptr, ptr %tlg.addr, align 8
  %tl = getelementptr inbounds %struct.QEMUTimerListGroup, ptr %3, i32 0, i32 0
  %4 = load i32, ptr %type, align 4
  %idxprom = zext i32 %4 to i64
  %arrayidx = getelementptr [4 x ptr], ptr %tl, i64 0, i64 %idxprom
  %5 = load ptr, ptr %arrayidx, align 8
  %call1 = call i64 @timerlist_deadline_ns(ptr noundef %5)
  %call2 = call i64 @qemu_soonest_timeout(i64 noundef %2, i64 noundef %call1)
  store i64 %call2, ptr %deadline, align 8
  br label %if.end

if.end:                                           ; preds = %if.then, %for.body
  br label %for.inc

for.inc:                                          ; preds = %if.end
  %6 = load i32, ptr %type, align 4
  %inc = add i32 %6, 1
  store i32 %inc, ptr %type, align 4
  br label %for.cond, !llvm.loop !17

for.end:                                          ; preds = %for.cond
  %7 = load i64, ptr %deadline, align 8
  ret i64 %7
}