; Function Attrs: nounwind sspstrong uwtable
define dso_local range(i64 -1, -9223372036854775808) i64 @timerlistgroup_deadline_ns(ptr noundef readonly captures(none) %tlg) local_unnamed_addr #0 {
entry:
  br label %for.body

for.body:                                         ; preds = %entry, %for.inc
  %indvars.iv = phi i64 [ 0, %entry ], [ %indvars.iv.next, %for.inc ]
  %deadline.05 = phi i64 [ -1, %entry ], [ %deadline.1, %for.inc ]
  %0 = load i32, ptr @use_icount, align 4
  %tobool.i = icmp eq i32 %0, 0
  %cmp.i = icmp ne i64 %indvars.iv, 1
  %.not.i = or i1 %cmp.i, %tobool.i
  br i1 %.not.i, label %if.then, label %for.inc

if.then:                                          ; preds = %for.body
  %arrayidx = getelementptr [4 x ptr], ptr %tlg, i64 0, i64 %indvars.iv
  %1 = load ptr, ptr %arrayidx, align 8
  %active_timers.i = getelementptr inbounds nuw i8, ptr %1, i64 56
  %2 = load atomic i64, ptr %active_timers.i monotonic, align 8
  %tobool.not.i = icmp eq i64 %2, 0
  br i1 %tobool.not.i, label %timerlist_deadline_ns.exit, label %if.end.i

if.end.i:                                         ; preds = %if.then
  %3 = load ptr, ptr %1, align 8
  %enabled.i = getelementptr inbounds nuw i8, ptr %3, i64 12
  %4 = load i8, ptr %enabled.i, align 4
  %tobool1.i = trunc i8 %4 to i1
  br i1 %tobool1.i, label %for.body.us.i, label %timerlist_deadline_ns.exit

for.body.us.i:                                    ; preds = %if.end.i
  %active_timers_lock.i = getelementptr inbounds nuw i8, ptr %1, i64 8
  %5 = load atomic i64, ptr @qemu_mutex_lock_func monotonic, align 8
  %6 = inttoptr i64 %5 to ptr
  tail call void %6(ptr noundef nonnull %active_timers_lock.i, ptr noundef nonnull @.str.3, i32 noundef 122) #17
  %7 = load ptr, ptr %active_timers.i, align 8
  %tobool6.not.us.i = icmp eq ptr %7, null
  br i1 %tobool6.not.us.i, label %glib_autoptr_cleanup_QemuLockable.exit.i, label %qemu_lockable_auto_unlock.exit.us.i

qemu_lockable_auto_unlock.exit.us.i:              ; preds = %for.body.us.i
  %8 = load i64, ptr %7, align 8
  tail call void @qemu_mutex_unlock_impl(ptr noundef nonnull %active_timers_lock.i, ptr noundef nonnull @.str.3, i32 noundef 132) #17
  %9 = load ptr, ptr %1, align 8
  %type.i = getelementptr inbounds nuw i8, ptr %9, i64 8
  %10 = load i32, ptr %type.i, align 8
  %call12.i = tail call i64 @qemu_clock_get_ns(i32 noundef %10)
  %sub.i = sub i64 %8, %call12.i
  %.sub.i = tail call i64 @llvm.smax.i64(i64 %sub.i, i64 0)
  br label %timerlist_deadline_ns.exit

glib_autoptr_cleanup_QemuLockable.exit.i:         ; preds = %for.body.us.i
  tail call void @qemu_mutex_unlock_impl(ptr noundef nonnull %active_timers_lock.i, ptr noundef nonnull @.str.3, i32 noundef 132) #17
  br label %timerlist_deadline_ns.exit

timerlist_deadline_ns.exit:                       ; preds = %if.then, %if.end.i, %qemu_lockable_auto_unlock.exit.us.i, %glib_autoptr_cleanup_QemuLockable.exit.i
  %retval.0.i = phi i64 [ -1, %glib_autoptr_cleanup_QemuLockable.exit.i ], [ -1, %if.then ], [ -1, %if.end.i ], [ %.sub.i, %qemu_lockable_auto_unlock.exit.us.i ]
  %cond.i = tail call noundef i64 @llvm.umin.i64(i64 %deadline.05, i64 %retval.0.i)
  br label %for.inc

for.inc:                                          ; preds = %for.body, %timerlist_deadline_ns.exit
  %deadline.1 = phi i64 [ %cond.i, %timerlist_deadline_ns.exit ], [ %deadline.05, %for.body ]
  %indvars.iv.next = add nuw nsw i64 %indvars.iv, 1
  %exitcond.not = icmp eq i64 %indvars.iv.next, 4
  br i1 %exitcond.not, label %for.end, label %for.body, !llvm.loop !14

for.end:                                          ; preds = %for.inc
  ret i64 %deadline.1
}